target datalayout = "e-m:e-p270:32:32-p271:32:32-p272:64:64-i64:64-i128:128-f80:128-n8:16:32:64-S128"
target triple = "x86_64-pc-linux-gnu"

%struct._mcaststream_tapinfo = type { ptr, ptr, ptr, ptr, i32, ptr, i32 }
%struct._GList = type { ptr, ptr, ptr }
%class.QVariant = type { %"struct.QVariant::Private" }
%"struct.QVariant::Private" = type { %union.anon, i64 }
%union.anon = type { ptr, [16 x i8] }
%class.MulticastStatTreeWidgetItem = type { %class.QTreeWidgetItem.base, %struct._address, i16, %struct._address, i16, i32, double, double, double, i32, i32, i32, i32 }
%class.QTreeWidgetItem.base = type <{ ptr, i32, [4 x i8], %class.QList.13, ptr, ptr, ptr, %class.QList.17, %class.QFlags }>
%class.QList.13 = type { %struct.QArrayDataPointer.16 }
%struct.QArrayDataPointer.16 = type { ptr, ptr, i64 }
%class.QList.17 = type { %struct.QArrayDataPointer.20 }
%struct.QArrayDataPointer.20 = type { ptr, ptr, i64 }
%class.QFlags = type { i32 }
%struct._address = type { i32, i32, ptr, ptr }

; Function Attrs: mustprogress nounwind uwtable
define internal void @_ZL13clear_addressP8_address(ptr noundef %0) #2 {
  %2 = alloca ptr, align 8
  store ptr %0, ptr %2, align 8
  %3 = load ptr, ptr %2, align 8
  %4 = getelementptr inbounds %struct._address, ptr %3, i32 0, i32 0
  store i32 0, ptr %4, align 8
  %5 = load ptr, ptr %2, align 8
  %6 = getelementptr inbounds %struct._address, ptr %5, i32 0, i32 1
  store i32 0, ptr %6, align 4
  %7 = load ptr, ptr %2, align 8
  %8 = getelementptr inbounds %struct._address, ptr %7, i32 0, i32 2
  store ptr null, ptr %8, align 8
  %9 = load ptr, ptr %2, align 8
  %10 = getelementptr inbounds %struct._address, ptr %9, i32 0, i32 3
  store ptr null, ptr %10, align 8
  ret void
}

; Function Attrs: mustprogress uwtable
define linkonce_odr void @_ZN15QTreeWidgetItem16setTextAlignmentEii(ptr noundef nonnull align 8 dereferenceable(92) %0, i32 noundef %1, i32 noundef %2) #0 comdat align 2 personality ptr @__gxx_personality_v0 {
  %4 = alloca ptr, align 8
  %5 = alloca i32, align 4
  %6 = alloca i32, align 4
  %7 = alloca %class.QVariant, align 8
  %8 = alloca ptr, align 8
  %9 = alloca i32, align 4
  store ptr %0, ptr %4, align 8
  store i32 %1, ptr %5, align 4
  store i32 %2, ptr %6, align 4
  %10 = load ptr, ptr %4, align 8
  %11 = load i32, ptr %5, align 4
  %12 = load i32, ptr %6, align 4
  call void @_ZN8QVariantC1Ei(ptr noundef nonnull align 8 dereferenceable(32) %7, i32 noundef %12)
  %13 = load ptr, ptr %10, align 8
  %14 = getelementptr inbounds ptr, ptr %13, i64 4
  %15 = load ptr, ptr %14, align 8
  invoke void %15(ptr noundef nonnull align 8 dereferenceable(92) %10, i32 noundef %11, i32 noundef 7, ptr noundef nonnull align 8 dereferenceable(32) %7)
          to label %16 unwind label %17

16:                                               ; preds = %3
  call void @_ZN8QVariantD1Ev(ptr noundef nonnull align 8 dereferenceable(32) %7) #15
  ret void

17:                                               ; preds = %3
  %18 = landingpad { ptr, i32 }
          cleanup
  %19 = extractvalue { ptr, i32 } %18, 0
  store ptr %19, ptr %8, align 8
  %20 = extractvalue { ptr, i32 } %18, 1
  store i32 %20, ptr %9, align 4
  call void @_ZN8QVariantD1Ev(ptr noundef nonnull align 8 dereferenceable(32) %7) #15
  br label %21

21:                                               ; preds = %17
  %22 = load ptr, ptr %8, align 8
  %23 = load i32, ptr %9, align 4
  %24 = insertvalue { ptr, i32 } poison, ptr %22, 0
  %25 = insertvalue { ptr, i32 } %24, i32 %23, 1
  resume { ptr, i32 } %25
}

; Function Attrs: mustprogress uwtable
define linkonce_odr void @_ZN27MulticastStatTreeWidgetItemC2EP11QTreeWidget(ptr noundef nonnull align 8 dereferenceable(200) %0, ptr noundef %1) unnamed_addr #0 comdat align 2 personality ptr @__gxx_personality_v0 {
  %3 = alloca ptr, align 8
  %4 = alloca ptr, align 8
  %5 = alloca ptr, align 8
  %6 = alloca i32, align 4
  store ptr %0, ptr %3, align 8
  store ptr %1, ptr %4, align 8
  %7 = load ptr, ptr %3, align 8
  %8 = load ptr, ptr %4, align 8
  call void @_ZN15QTreeWidgetItemC2EP11QTreeWidgeti(ptr noundef nonnull align 8 dereferenceable(92) %7, ptr noundef %8, i32 noundef 1000)
  store ptr getelementptr inbounds ({ [10 x ptr] }, ptr @_ZTV27MulticastStatTreeWidgetItem, i32 0, i32 0, i32 2), ptr %7, align 8
  %9 = getelementptr inbounds %class.MulticastStatTreeWidgetItem, ptr %7, i32 0, i32 1
  invoke void @_ZL13clear_addressP8_address(ptr noundef %9)
          to label %10 unwind label %23

10:                                               ; preds = %2
  %11 = getelementptr inbounds %class.MulticastStatTreeWidgetItem, ptr %7, i32 0, i32 3
  invoke void @_ZL13clear_addressP8_address(ptr noundef %11)
          to label %12 unwind label %23

12:                                               ; preds = %10
  %13 = getelementptr inbounds %class.MulticastStatTreeWidgetItem, ptr %7, i32 0, i32 2
  store i16 0, ptr %13, align 8
  %14 = getelementptr inbounds %class.MulticastStatTreeWidgetItem, ptr %7, i32 0, i32 4
  store i16 0, ptr %14, align 8
  %15 = getelementptr inbounds %class.MulticastStatTreeWidgetItem, ptr %7, i32 0, i32 5
  store i32 0, ptr %15, align 4
  %16 = getelementptr inbounds %class.MulticastStatTreeWidgetItem, ptr %7, i32 0, i32 6
  store double 0.000000e+00, ptr %16, align 8
  %17 = getelementptr inbounds %class.MulticastStatTreeWidgetItem, ptr %7, i32 0, i32 7
  store double 0.000000e+00, ptr %17, align 8
  %18 = getelementptr inbounds %class.MulticastStatTreeWidgetItem, ptr %7, i32 0, i32 8
  store double 0.000000e+00, ptr %18, align 8
  %19 = getelementptr inbounds %class.MulticastStatTreeWidgetItem, ptr %7, i32 0, i32 9
  store i32 0, ptr %19, align 8
  %20 = getelementptr inbounds %class.MulticastStatTreeWidgetItem, ptr %7, i32 0, i32 10
  store i32 0, ptr %20, align 4
  %21 = getelementptr inbounds %class.MulticastStatTreeWidgetItem, ptr %7, i32 0, i32 11
  store i32 0, ptr %21, align 8
  %22 = getelementptr inbounds %class.MulticastStatTreeWidgetItem, ptr %7, i32 0, i32 12
  store i32 0, ptr %22, align 4
  ret void

23:                                               ; preds = %10, %2
  %24 = landingpad { ptr, i32 }
          cleanup
  %25 = extractvalue { ptr, i32 } %24, 0
  store ptr %25, ptr %5, align 8
  %26 = extractvalue { ptr, i32 } %24, 1
  store i32 %26, ptr %6, align 4
  call void @_ZN15QTreeWidgetItemD2Ev(ptr noundef nonnull align 8 dereferenceable(92) %7) #15
  br label %27

27:                                               ; preds = %23
  %28 = load ptr, ptr %5, align 8
  %29 = load i32, ptr %6, align 4
  %30 = insertvalue { ptr, i32 } poison, ptr %28, 0
  %31 = insertvalue { ptr, i32 } %30, i32 %29, 1
  resume { ptr, i32 } %31
}

; Function Attrs: mustprogress uwtable
define void @_ZN25MulticastStatisticsDialog7tapDrawEP20_mcaststream_tapinfo(ptr noundef %0) #0 align 2 personality ptr @__gxx_personality_v0 {
  %2 = alloca ptr, align 8
  %3 = alloca ptr, align 8
  %4 = alloca i32, align 4
  %5 = alloca ptr, align 8
  %6 = alloca ptr, align 8
  %7 = alloca ptr, align 8
  %8 = alloca ptr, align 8
  %9 = alloca ptr, align 8
  %10 = alloca i32, align 4
  %11 = alloca i32, align 4
  store ptr %0, ptr %2, align 8
  %12 = load ptr, ptr %2, align 8
  %13 = getelementptr inbounds %struct._mcaststream_tapinfo, ptr %12, i32 0, i32 0
  %14 = load ptr, ptr %13, align 8
  store ptr %14, ptr %3, align 8
  %15 = load ptr, ptr %3, align 8
  %16 = icmp ne ptr %15, null
  br i1 %16, label %17, label %21

17:                                               ; preds = %1
  %18 = load ptr, ptr %3, align 8
  %19 = call noundef ptr @_ZN18TapParameterDialog15statsTreeWidgetEv(ptr noundef nonnull align 8 dereferenceable(224) %18)
  %20 = icmp ne ptr %19, null
  br i1 %20, label %22, label %21

21:                                               ; preds = %17, %1
  br label %99

22:                                               ; preds = %17
  %23 = load ptr, ptr %3, align 8
  %24 = call noundef ptr @_ZN18TapParameterDialog15statsTreeWidgetEv(ptr noundef nonnull align 8 dereferenceable(224) %23)
  call void @_ZN11QTreeWidget5clearEv(ptr noundef nonnull align 8 dereferenceable(40) %24)
  store i32 0, ptr %4, align 4
  %25 = load ptr, ptr %2, align 8
  %26 = getelementptr inbounds %struct._mcaststream_tapinfo, ptr %25, i32 0, i32 3
  %27 = load ptr, ptr %26, align 8
  %28 = call ptr @g_list_first(ptr noundef %27)
  store ptr %28, ptr %5, align 8
  br label %29

29:                                               ; preds = %97, %22
  %30 = load ptr, ptr %5, align 8
  %31 = icmp ne ptr %30, null
  br i1 %31, label %32, label %99

32:                                               ; preds = %29
  %33 = load ptr, ptr %5, align 8
  %34 = icmp ne ptr %33, null
  br i1 %34, label %35, label %39

35:                                               ; preds = %32
  %36 = load ptr, ptr %5, align 8
  %37 = getelementptr inbounds %struct._GList, ptr %36, i32 0, i32 0
  %38 = load ptr, ptr %37, align 8
  br label %40

39:                                               ; preds = %32
  br label %40

40:                                               ; preds = %39, %35
  %41 = phi ptr [ %38, %35 ], [ null, %39 ]
  store ptr %41, ptr %6, align 8
  %42 = load ptr, ptr %6, align 8
  %43 = icmp ne ptr %42, null
  br i1 %43, label %45, label %44

44:                                               ; preds = %40
  br label %89

45:                                               ; preds = %40
  %46 = load ptr, ptr %3, align 8
  %47 = call noundef ptr @_ZN18TapParameterDialog15statsTreeWidgetEv(ptr noundef nonnull align 8 dereferenceable(224) %46)
  %48 = load i32, ptr %4, align 4
  %49 = call noundef ptr @_ZNK11QTreeWidget12topLevelItemEi(ptr noundef nonnull align 8 dereferenceable(40) %47, i32 noundef %48)
  store ptr %49, ptr %8, align 8
  %50 = load ptr, ptr %8, align 8
  %51 = icmp ne ptr %50, null
  br i1 %51, label %82, label %52

52:                                               ; preds = %45
  %53 = call noalias noundef nonnull ptr @_Znwm(i64 noundef 200) #16
  %54 = load ptr, ptr %3, align 8
  %55 = invoke noundef ptr @_ZN18TapParameterDialog15statsTreeWidgetEv(ptr noundef nonnull align 8 dereferenceable(224) %54)
          to label %56 unwind label %71

56:                                               ; preds = %52
  invoke void @_ZN27MulticastStatTreeWidgetItemC2EP11QTreeWidget(ptr noundef nonnull align 8 dereferenceable(200) %53, ptr noundef %55)
          to label %57 unwind label %71

57:                                               ; preds = %56
  store ptr %53, ptr %7, align 8
  store i32 0, ptr %11, align 4
  br label %58

58:                                               ; preds = %78, %57
  %59 = load i32, ptr %11, align 4
  %60 = load ptr, ptr %3, align 8
  %61 = call noundef ptr @_ZN18TapParameterDialog15statsTreeWidgetEv(ptr noundef nonnull align 8 dereferenceable(224) %60)
  %62 = call noundef i32 @_ZNK11QTreeWidget11columnCountEv(ptr noundef nonnull align 8 dereferenceable(40) %61)
  %63 = icmp slt i32 %59, %62
  br i1 %63, label %64, label %81

64:                                               ; preds = %58
  %65 = load i32, ptr %11, align 4
  %66 = icmp eq i32 %65, 0
  br i1 %66, label %70, label %67

67:                                               ; preds = %64
  %68 = load i32, ptr %11, align 4
  %69 = icmp eq i32 %68, 2
  br i1 %69, label %70, label %75

70:                                               ; preds = %67, %64
  br label %78

71:                                               ; preds = %56, %52
  %72 = landingpad { ptr, i32 }
          cleanup
  %73 = extractvalue { ptr, i32 } %72, 0
  store ptr %73, ptr %9, align 8
  %74 = extractvalue { ptr, i32 } %72, 1
  store i32 %74, ptr %10, align 4
  call void @_ZdlPv(ptr noundef %53) #17
  br label %100

75:                                               ; preds = %67
  %76 = load ptr, ptr %7, align 8
  %77 = load i32, ptr %11, align 4
  call void @_ZN15QTreeWidgetItem16setTextAlignmentEii(ptr noundef nonnull align 8 dereferenceable(92) %76, i32 noundef %77, i32 noundef 2)
  br label %78

78:                                               ; preds = %75, %70
  %79 = load i32, ptr %11, align 4
  %80 = add i32 %79, 1
  store i32 %80, ptr %11, align 4
  br label %58, !llvm.loop !7

81:                                               ; preds = %58
  br label %84

82:                                               ; preds = %45
  %83 = load ptr, ptr %8, align 8
  store ptr %83, ptr %7, align 8
  br label %84

84:                                               ; preds = %82, %81
  %85 = load ptr, ptr %7, align 8
  %86 = load ptr, ptr %6, align 8
  call void @_ZN27MulticastStatTreeWidgetItem16updateStreamInfoEPK18_mcast_stream_info(ptr noundef nonnull align 8 dereferenceable(200) %85, ptr noundef %86)
  %87 = load i32, ptr %4, align 4
  %88 = add i32 %87, 1
  store i32 %88, ptr %4, align 4
  br label %89

89:                                               ; preds = %84, %44
  %90 = load ptr, ptr %5, align 8
  %91 = icmp ne ptr %90, null
  br i1 %91, label %92, label %96

92:                                               ; preds = %89
  %93 = load ptr, ptr %5, align 8
  %94 = getelementptr inbounds %struct._GList, ptr %93, i32 0, i32 1
  %95 = load ptr, ptr %94, align 8
  br label %97

96:                                               ; preds = %89
  br label %97

97:                                               ; preds = %96, %92
  %98 = phi ptr [ %95, %92 ], [ null, %96 ]
  store ptr %98, ptr %5, align 8
  br label %29, !llvm.loop !8

99:                                               ; preds = %29, %21
  ret void

100:                                              ; preds = %71
  %101 = load ptr, ptr %9, align 8
  %102 = load i32, ptr %10, align 4
  %103 = insertvalue { ptr, i32 } poison, ptr %101, 0
  %104 = insertvalue { ptr, i32 } %103, i32 %102, 1
  resume { ptr, i32 } %104
}