; Function Attrs: mustprogress uwtable
define void @_ZN25MulticastStatisticsDialog7tapDrawEP20_mcaststream_tapinfo(ptr nocapture noundef readonly %0) #0 align 2 personality ptr @__gxx_personality_v0 {
  %2 = alloca %class.QVariant, align 8
  %3 = load ptr, ptr %0, align 8
  %.not = icmp eq ptr %3, null
  br i1 %.not, label %.loopexit38, label %4

4:                                                ; preds = %1
  %5 = tail call noundef ptr @_ZN18TapParameterDialog15statsTreeWidgetEv(ptr noundef nonnull align 8 dereferenceable(224) %3)
  %.not34 = icmp eq ptr %5, null
  br i1 %.not34, label %.loopexit38, label %6

6:                                                ; preds = %4
  %7 = tail call noundef ptr @_ZN18TapParameterDialog15statsTreeWidgetEv(ptr noundef nonnull align 8 dereferenceable(224) %3)
  tail call void @_ZN11QTreeWidget5clearEv(ptr noundef nonnull align 8 dereferenceable(40) %7)
  %8 = getelementptr inbounds i8, ptr %0, i64 24
  %9 = load ptr, ptr %8, align 8
  %10 = tail call ptr @g_list_first(ptr noundef %9)
  %.not3541 = icmp eq ptr %10, null
  br i1 %.not3541, label %.loopexit38, label %.lr.ph44

.lr.ph44:                                         ; preds = %6, %40
  %.02843 = phi i32 [ %.1, %40 ], [ 0, %6 ]
  %.02942 = phi ptr [ %42, %40 ], [ %10, %6 ]
  %11 = load ptr, ptr %.02942, align 8
  %.not36 = icmp eq ptr %11, null
  br i1 %.not36, label %40, label %12

12:                                               ; preds = %.lr.ph44
  %13 = call noundef ptr @_ZN18TapParameterDialog15statsTreeWidgetEv(ptr noundef nonnull align 8 dereferenceable(224) %3)
  %14 = call noundef ptr @_ZNK11QTreeWidget12topLevelItemEi(ptr noundef nonnull align 8 dereferenceable(40) %13, i32 noundef %.02843)
  %.not37 = icmp eq ptr %14, null
  br i1 %.not37, label %15, label %.loopexit

15:                                               ; preds = %12
  %16 = call noalias noundef nonnull dereferenceable(200) ptr @_Znwm(i64 noundef 200) #18
  %17 = invoke noundef ptr @_ZN18TapParameterDialog15statsTreeWidgetEv(ptr noundef nonnull align 8 dereferenceable(224) %3)
          to label %18 unwind label %26

18:                                               ; preds = %15
  invoke void @_ZN15QTreeWidgetItemC2EP11QTreeWidgeti(ptr noundef nonnull align 8 dereferenceable(92) %16, ptr noundef %17, i32 noundef 1000)
          to label %_ZN27MulticastStatTreeWidgetItemC2EP11QTreeWidget.exit unwind label %26

_ZN27MulticastStatTreeWidgetItemC2EP11QTreeWidget.exit: ; preds = %18
  store ptr getelementptr inbounds ({ [10 x ptr] }, ptr @_ZTV27MulticastStatTreeWidgetItem, i64 0, i32 0, i64 2), ptr %16, align 8
  %19 = getelementptr inbounds i8, ptr %16, i64 96
  %20 = getelementptr inbounds i8, ptr %16, i64 128
  %21 = getelementptr inbounds i8, ptr %16, i64 156
  call void @llvm.memset.p0.i64(ptr noundef nonnull align 8 dereferenceable(26) %19, i8 0, i64 26, i1 false)
  call void @llvm.memset.p0.i64(ptr noundef nonnull align 8 dereferenceable(26) %20, i8 0, i64 26, i1 false)
  call void @llvm.memset.p0.i64(ptr noundef nonnull align 4 dereferenceable(44) %21, i8 0, i64 44, i1 false)
  %22 = call noundef ptr @_ZN18TapParameterDialog15statsTreeWidgetEv(ptr noundef nonnull align 8 dereferenceable(224) %3)
  %23 = call noundef i32 @_ZNK11QTreeWidget11columnCountEv(ptr noundef nonnull align 8 dereferenceable(40) %22)
  %24 = icmp sgt i32 %23, 0
  br i1 %24, label %.lr.ph, label %.loopexit

.lr.ph:                                           ; preds = %_ZN27MulticastStatTreeWidgetItemC2EP11QTreeWidget.exit, %34
  %.040 = phi i32 [ %35, %34 ], [ 0, %_ZN27MulticastStatTreeWidgetItemC2EP11QTreeWidget.exit ]
  %25 = and i32 %.040, 2147483645
  %or.cond = icmp eq i32 %25, 0
  br i1 %or.cond, label %34, label %28

common.resume:                                    ; preds = %32, %26
  %common.resume.op = phi { ptr, i32 } [ %27, %26 ], [ %33, %32 ]
  resume { ptr, i32 } %common.resume.op

26:                                               ; preds = %18, %15
  %27 = landingpad { ptr, i32 }
          cleanup
  call void @_ZdlPv(ptr noundef nonnull %16) #19
  br label %common.resume

28:                                               ; preds = %.lr.ph
  call void @llvm.lifetime.start.p0(i64 32, ptr nonnull %2)
  call void @_ZN8QVariantC1Ei(ptr noundef nonnull align 8 dereferenceable(32) %2, i32 noundef 2)
  %29 = load ptr, ptr %16, align 8
  %30 = getelementptr inbounds i8, ptr %29, i64 32
  %31 = load ptr, ptr %30, align 8
  invoke void %31(ptr noundef nonnull align 8 dereferenceable(92) %16, i32 noundef %.040, i32 noundef 7, ptr noundef nonnull align 8 dereferenceable(32) %2)
          to label %_ZN15QTreeWidgetItem16setTextAlignmentEii.exit unwind label %32

32:                                               ; preds = %28
  %33 = landingpad { ptr, i32 }
          cleanup
  call void @_ZN8QVariantD1Ev(ptr noundef nonnull align 8 dereferenceable(32) %2) #17
  br label %common.resume

_ZN15QTreeWidgetItem16setTextAlignmentEii.exit:   ; preds = %28
  call void @_ZN8QVariantD1Ev(ptr noundef nonnull align 8 dereferenceable(32) %2) #17
  call void @llvm.lifetime.end.p0(i64 32, ptr nonnull %2)
  br label %34

34:                                               ; preds = %.lr.ph, %_ZN15QTreeWidgetItem16setTextAlignmentEii.exit
  %35 = add nuw nsw i32 %.040, 1
  %36 = call noundef ptr @_ZN18TapParameterDialog15statsTreeWidgetEv(ptr noundef nonnull align 8 dereferenceable(224) %3)
  %37 = call noundef i32 @_ZNK11QTreeWidget11columnCountEv(ptr noundef nonnull align 8 dereferenceable(40) %36)
  %38 = icmp slt i32 %35, %37
  br i1 %38, label %.lr.ph, label %.loopexit, !llvm.loop !20

.loopexit:                                        ; preds = %34, %_ZN27MulticastStatTreeWidgetItemC2EP11QTreeWidget.exit, %12
  %.030 = phi ptr [ %14, %12 ], [ %16, %_ZN27MulticastStatTreeWidgetItemC2EP11QTreeWidget.exit ], [ %16, %34 ]
  call void @_ZN27MulticastStatTreeWidgetItem16updateStreamInfoEPK18_mcast_stream_info(ptr noundef nonnull align 8 dereferenceable(200) %.030, ptr noundef nonnull %11)
  %39 = add i32 %.02843, 1
  br label %40

40:                                               ; preds = %.lr.ph44, %.loopexit
  %.1 = phi i32 [ %39, %.loopexit ], [ %.02843, %.lr.ph44 ]
  %41 = getelementptr inbounds i8, ptr %.02942, i64 8
  %42 = load ptr, ptr %41, align 8
  %.not35 = icmp eq ptr %42, null
  br i1 %.not35, label %.loopexit38, label %.lr.ph44, !llvm.loop !21

.loopexit38:                                      ; preds = %40, %6, %1, %4
  ret void
}